; Function Attrs: mustprogress nofree norecurse nosync nounwind willreturn memory(read, inaccessiblemem: none) uwtable
define internal ptr @filter_child_next(ptr noundef readonly captures(none) %0, ptr noundef readnone captures(address_is_null) %1) #9 {
  %.not = icmp eq ptr %1, null
  br i1 %.not, label %3, label %12

3:                                                ; preds = %2
  %4 = getelementptr inbounds nuw i8, ptr %0, i64 8
  %5 = load ptr, ptr %4, align 8, !tbaa !92
  %.not9 = icmp eq ptr %5, null
  br i1 %.not9, label %12, label %6

6:                                                ; preds = %3
  %7 = getelementptr inbounds nuw i8, ptr %5, i64 32
  %8 = load ptr, ptr %7, align 8, !tbaa !113
  %.not10 = icmp eq ptr %8, null
  br i1 %.not10, label %12, label %9

9:                                                ; preds = %6
  %10 = getelementptr inbounds nuw i8, ptr %0, i64 72
  %11 = load ptr, ptr %10, align 8, !tbaa !107
  %.not11 = icmp eq ptr %11, null
  br i1 %.not11, label %12, label %13

12:                                               ; preds = %9, %6, %3, %2
  br label %13

13:                                               ; preds = %9, %12
  %.0 = phi ptr [ null, %12 ], [ %11, %9 ]
  ret ptr %.0
}